target datalayout = "e-m:e-p270:32:32-p271:32:32-p272:64:64-i64:64-i128:128-f80:128-n8:16:32:64-S128"
target triple = "x86_64-pc-linux-gnu"

%struct.mbedtls_mpi = type { ptr, i16, i16 }
%struct.mbedtls_rsa_context = type { i32, i64, %struct.mbedtls_mpi, %struct.mbedtls_mpi, %struct.mbedtls_mpi, %struct.mbedtls_mpi, %struct.mbedtls_mpi, %struct.mbedtls_mpi, %struct.mbedtls_mpi, %struct.mbedtls_mpi, %struct.mbedtls_mpi, %struct.mbedtls_mpi, %struct.mbedtls_mpi, %struct.mbedtls_mpi, %struct.mbedtls_mpi, i32, i32 }

; Function Attrs: nounwind uwtable
define internal i32 @rsa_rsassa_pss_sign(ptr noundef %0, ptr noundef %1, ptr noundef %2, i32 noundef %3, i32 noundef %4, ptr noundef %5, i32 noundef %6, ptr noundef %7) #0 {
  %9 = alloca i32, align 4
  %10 = alloca ptr, align 8
  %11 = alloca ptr, align 8
  %12 = alloca ptr, align 8
  %13 = alloca i32, align 4
  %14 = alloca i32, align 4
  %15 = alloca ptr, align 8
  %16 = alloca i32, align 4
  %17 = alloca ptr, align 8
  store ptr %0, ptr %10, align 8, !tbaa !3
  store ptr %1, ptr %11, align 8, !tbaa !26
  store ptr %2, ptr %12, align 8, !tbaa !26
  store i32 %3, ptr %13, align 4, !tbaa !12
  store i32 %4, ptr %14, align 4, !tbaa !12
  store ptr %5, ptr %15, align 8, !tbaa !8
  store i32 %6, ptr %16, align 4, !tbaa !12
  store ptr %7, ptr %17, align 8, !tbaa !8
  %18 = load ptr, ptr %10, align 8, !tbaa !3
  %19 = getelementptr inbounds nuw %struct.mbedtls_rsa_context, ptr %18, i32 0, i32 15
  %20 = load i32, ptr %19, align 8, !tbaa !24
  %21 = icmp ne i32 %20, 1
  br i1 %21, label %22, label %23

22:                                               ; preds = %8
  store i32 -16512, ptr %9, align 4
  br label %42

23:                                               ; preds = %8
  %24 = load ptr, ptr %10, align 8, !tbaa !3
  %25 = getelementptr inbounds nuw %struct.mbedtls_rsa_context, ptr %24, i32 0, i32 16
  %26 = load i32, ptr %25, align 4, !tbaa !25
  %27 = icmp eq i32 %26, 0
  br i1 %27, label %28, label %32

28:                                               ; preds = %23
  %29 = load i32, ptr %13, align 4, !tbaa !12
  %30 = icmp eq i32 %29, 0
  br i1 %30, label %31, label %32

31:                                               ; preds = %28
  store i32 -16512, ptr %9, align 4
  br label %42

32:                                               ; preds = %28, %23
  %33 = load ptr, ptr %10, align 8, !tbaa !3
  %34 = load ptr, ptr %11, align 8, !tbaa !26
  %35 = load ptr, ptr %12, align 8, !tbaa !26
  %36 = load i32, ptr %13, align 4, !tbaa !12
  %37 = load i32, ptr %14, align 4, !tbaa !12
  %38 = load ptr, ptr %15, align 8, !tbaa !8
  %39 = load i32, ptr %16, align 4, !tbaa !12
  %40 = load ptr, ptr %17, align 8, !tbaa !8
  %41 = call i32 @rsa_rsassa_pss_sign_no_mode_check(ptr noundef %33, ptr noundef %34, ptr noundef %35, i32 noundef %36, i32 noundef %37, ptr noundef %38, i32 noundef %39, ptr noundef %40)
  store i32 %41, ptr %9, align 4
  br label %42

42:                                               ; preds = %32, %31, %22
  %43 = load i32, ptr %9, align 4
  ret i32 %43
}

; Function Attrs: nounwind uwtable
define hidden i32 @mbedtls_rsa_rsassa_pss_sign_ext(ptr noundef %0, ptr noundef %1, ptr noundef %2, i32 noundef %3, i32 noundef %4, ptr noundef %5, i32 noundef %6, ptr noundef %7) #0 {
  %9 = alloca ptr, align 8
  %10 = alloca ptr, align 8
  %11 = alloca ptr, align 8
  %12 = alloca i32, align 4
  %13 = alloca i32, align 4
  %14 = alloca ptr, align 8
  %15 = alloca i32, align 4
  %16 = alloca ptr, align 8
  store ptr %0, ptr %9, align 8, !tbaa !3
  store ptr %1, ptr %10, align 8, !tbaa !26
  store ptr %2, ptr %11, align 8, !tbaa !26
  store i32 %3, ptr %12, align 4, !tbaa !12
  store i32 %4, ptr %13, align 4, !tbaa !12
  store ptr %5, ptr %14, align 8, !tbaa !8
  store i32 %6, ptr %15, align 4, !tbaa !12
  store ptr %7, ptr %16, align 8, !tbaa !8
  %17 = load ptr, ptr %9, align 8, !tbaa !3
  %18 = load ptr, ptr %10, align 8, !tbaa !26
  %19 = load ptr, ptr %11, align 8, !tbaa !26
  %20 = load i32, ptr %12, align 4, !tbaa !12
  %21 = load i32, ptr %13, align 4, !tbaa !12
  %22 = load ptr, ptr %14, align 8, !tbaa !8
  %23 = load i32, ptr %15, align 4, !tbaa !12
  %24 = load ptr, ptr %16, align 8, !tbaa !8
  %25 = call i32 @rsa_rsassa_pss_sign(ptr noundef %17, ptr noundef %18, ptr noundef %19, i32 noundef %20, i32 noundef %21, ptr noundef %22, i32 noundef %23, ptr noundef %24)
  ret i32 %25
}