; Function Attrs: nounwind uwtable
define hidden i32 @mbedtls_rsa_rsassa_pss_sign_ext(ptr noundef %0, ptr noundef %1, ptr noundef %2, i32 noundef %3, i32 noundef %4, ptr noundef %5, i32 noundef %6, ptr noundef %7) local_unnamed_addr #0 {
  %9 = getelementptr inbounds nuw i8, ptr %0, i64 224
  %10 = load i32, ptr %9, align 8, !tbaa !17
  %.not.i = icmp eq i32 %10, 1
  br i1 %.not.i, label %11, label %rsa_rsassa_pss_sign.exit

11:                                               ; preds = %8
  %12 = getelementptr inbounds nuw i8, ptr %0, i64 228
  %13 = load i32, ptr %12, align 4, !tbaa !18
  %14 = or i32 %13, %3
  %or.cond.i = icmp eq i32 %14, 0
  br i1 %or.cond.i, label %rsa_rsassa_pss_sign.exit, label %15

15:                                               ; preds = %11
  %16 = tail call fastcc i32 @rsa_rsassa_pss_sign_no_mode_check(ptr noundef nonnull %0, ptr noundef %1, ptr noundef %2, i32 noundef %3, i32 noundef %4, ptr noundef %5, i32 noundef %6, ptr noundef %7)
  br label %rsa_rsassa_pss_sign.exit

rsa_rsassa_pss_sign.exit:                         ; preds = %8, %11, %15
  %.0.i = phi i32 [ %16, %15 ], [ -16512, %8 ], [ -16512, %11 ]
  ret i32 %.0.i
}